target datalayout = "e-m:e-p270:32:32-p271:32:32-p272:64:64-i64:64-i128:128-f80:128-n8:16:32:64-S128"
target triple = "x86_64-pc-linux-gnu"

%struct.UCHARBUF = type { ptr, ptr, ptr, i32, i32, i32, ptr, ptr, i8, i8 }

; Function Attrs: inlinehint mustprogress nounwind uwtable
define internal noundef signext i8 @_ZL9U_FAILURE10UErrorCode(i32 noundef %0) #4 {
  %2 = alloca i32, align 4
  store i32 %0, ptr %2, align 4, !tbaa !24
  %3 = load i32, ptr %2, align 4, !tbaa !24
  %4 = icmp sgt i32 %3, 0
  %5 = zext i1 %4 to i8
  ret i8 %5
}

; Function Attrs: mustprogress uwtable
define ptr @ucbuf_getBuffer(ptr noundef %0, ptr noundef %1, ptr noundef %2) #0 {
  %4 = alloca ptr, align 8
  %5 = alloca ptr, align 8
  %6 = alloca ptr, align 8
  %7 = alloca ptr, align 8
  store ptr %0, ptr %5, align 8, !tbaa !28
  store ptr %1, ptr %6, align 8, !tbaa !13
  store ptr %2, ptr %7, align 8, !tbaa !15
  %8 = load ptr, ptr %7, align 8, !tbaa !15
  %9 = icmp eq ptr %8, null
  br i1 %9, label %15, label %10

10:                                               ; preds = %3
  %11 = load ptr, ptr %7, align 8, !tbaa !15
  %12 = load i32, ptr %11, align 4, !tbaa !24
  %13 = call noundef signext i8 @_ZL9U_FAILURE10UErrorCode(i32 noundef %12)
  %14 = icmp ne i8 %13, 0
  br i1 %14, label %15, label %16

15:                                               ; preds = %10, %3
  store ptr null, ptr %4, align 8
  br label %40

16:                                               ; preds = %10
  %17 = load ptr, ptr %5, align 8, !tbaa !28
  %18 = icmp eq ptr %17, null
  br i1 %18, label %22, label %19

19:                                               ; preds = %16
  %20 = load ptr, ptr %6, align 8, !tbaa !13
  %21 = icmp eq ptr %20, null
  br i1 %21, label %22, label %24

22:                                               ; preds = %19, %16
  %23 = load ptr, ptr %7, align 8, !tbaa !15
  store i32 1, ptr %23, align 4, !tbaa !24
  store ptr null, ptr %4, align 8
  br label %40

24:                                               ; preds = %19
  %25 = load ptr, ptr %5, align 8, !tbaa !28
  %26 = getelementptr inbounds nuw %struct.UCHARBUF, ptr %25, i32 0, i32 2
  %27 = load ptr, ptr %26, align 8, !tbaa !32
  %28 = load ptr, ptr %5, align 8, !tbaa !28
  %29 = getelementptr inbounds nuw %struct.UCHARBUF, ptr %28, i32 0, i32 0
  %30 = load ptr, ptr %29, align 8, !tbaa !34
  %31 = ptrtoint ptr %27 to i64
  %32 = ptrtoint ptr %30 to i64
  %33 = sub i64 %31, %32
  %34 = sdiv exact i64 %33, 2
  %35 = trunc i64 %34 to i32
  %36 = load ptr, ptr %6, align 8, !tbaa !13
  store i32 %35, ptr %36, align 4, !tbaa !16
  %37 = load ptr, ptr %5, align 8, !tbaa !28
  %38 = getelementptr inbounds nuw %struct.UCHARBUF, ptr %37, i32 0, i32 0
  %39 = load ptr, ptr %38, align 8, !tbaa !34
  store ptr %39, ptr %4, align 8
  br label %40

40:                                               ; preds = %24, %22, %15
  %41 = load ptr, ptr %4, align 8
  ret ptr %41
}