; Function Attrs: mustprogress nofree norecurse nosync nounwind willreturn memory(argmem: readwrite) uwtable
define ptr @ucbuf_getBuffer(ptr noundef readonly %0, ptr noundef writeonly %1, ptr noundef %2) local_unnamed_addr #8 {
  %4 = icmp eq ptr %2, null
  br i1 %4, label %21, label %5

5:                                                ; preds = %3
  %6 = load i32, ptr %2, align 4, !tbaa !14
  %7 = icmp slt i32 %6, 1
  br i1 %7, label %8, label %21

8:                                                ; preds = %5
  %9 = icmp eq ptr %0, null
  %10 = icmp eq ptr %1, null
  %or.cond = or i1 %9, %10
  br i1 %or.cond, label %11, label %12

11:                                               ; preds = %8
  store i32 1, ptr %2, align 4, !tbaa !14
  br label %21

12:                                               ; preds = %8
  %13 = getelementptr inbounds nuw i8, ptr %0, i64 16
  %14 = load ptr, ptr %13, align 8, !tbaa !19
  %15 = load ptr, ptr %0, align 8, !tbaa !23
  %16 = ptrtoint ptr %14 to i64
  %17 = ptrtoint ptr %15 to i64
  %18 = sub i64 %16, %17
  %19 = lshr exact i64 %18, 1
  %20 = trunc i64 %19 to i32
  store i32 %20, ptr %1, align 4, !tbaa !8
  br label %21

21:                                               ; preds = %3, %5, %12, %11
  %.0 = phi ptr [ null, %11 ], [ %15, %12 ], [ null, %5 ], [ null, %3 ]
  ret ptr %.0
}